target datalayout = "e-m:e-p270:32:32-p271:32:32-p272:64:64-i64:64-i128:128-f80:128-n8:16:32:64-S128"
target triple = "x86_64-pc-linux-gnu"

%struct._dfilter_loc = type { i64, i64 }
%struct.dfwork_t = type { ptr, i32, ptr, i32, ptr, ptr, ptr, ptr, i32, i32, ptr, ptr, ptr, ptr, ptr, ptr, i32 }
%struct._header_field_info = type { ptr, ptr, i32, i32, ptr, i64, ptr, i32, i32, i32, i32, ptr }

@.str = private unnamed_addr constant [8 x i8] c"DFilter\00", align 1
@.str.1 = private unnamed_addr constant [24 x i8] c"epan/dfilter/semcheck.c\00", align 1
@.str.3 = private unnamed_addr constant [31 x i8] c"assertion \22not reached\22 failed\00", align 1
@.str.5 = private unnamed_addr constant [144 x i8] c"Interpreting the symbol \E2\80\B9%s\E2\80\BA as a %s value string. Writing value strings without double quotes is deprecated. Please use \E2\80\B9\22%s\22\E2\80\BA instead\00", align 1
@__func__.dfilter_fvalue_from_literal = private unnamed_addr constant [28 x i8] c"dfilter_fvalue_from_literal\00", align 1

; Function Attrs: null_pointer_is_valid sspstrong uwtable
define hidden zeroext i1 @dfilter_fvalue_from_literal(ptr noundef %0, i32 noundef %1, ptr noundef %2, i1 noundef zeroext %3, ptr noundef %4) #0 {
  %6 = alloca i1, align 1
  %7 = alloca ptr, align 8
  %8 = alloca i32, align 4
  %9 = alloca ptr, align 8
  %10 = alloca i8, align 1
  %11 = alloca ptr, align 8
  %12 = alloca ptr, align 8
  %13 = alloca ptr, align 8
  %14 = alloca ptr, align 8
  %15 = alloca i32, align 4
  %16 = alloca i32, align 4
  %17 = alloca %struct._dfilter_loc, align 8
  store ptr %0, ptr %7, align 8
  store i32 %1, ptr %8, align 4
  store ptr %2, ptr %9, align 8
  %18 = zext i1 %3 to i8
  store i8 %18, ptr %10, align 1
  store ptr %4, ptr %11, align 8
  call void @llvm.lifetime.start.p0(i64 8, ptr %12) #8
  call void @llvm.lifetime.start.p0(i64 8, ptr %13) #8
  %19 = load ptr, ptr %9, align 8
  %20 = call ptr @stnode_data(ptr noundef %19)
  store ptr %20, ptr %13, align 8
  call void @llvm.lifetime.start.p0(i64 8, ptr %14) #8
  store ptr null, ptr %14, align 8
  call void @llvm.lifetime.start.p0(i64 4, ptr %15) #8
  %21 = load i32, ptr %8, align 4
  %22 = load ptr, ptr %13, align 8
  %23 = load i8, ptr %10, align 1, !range !6, !noundef !7
  %24 = trunc i8 %23 to i1
  %25 = call ptr @fvalue_from_literal(i32 noundef %21, ptr noundef %22, i1 noundef zeroext %24, ptr noundef %14)
  store ptr %25, ptr %12, align 8
  %26 = load ptr, ptr %12, align 8
  %27 = icmp ne ptr %26, null
  br i1 %27, label %28, label %32

28:                                               ; preds = %5
  %29 = load ptr, ptr %14, align 8
  call void @g_free(ptr noundef %29)
  %30 = load ptr, ptr %9, align 8
  %31 = load ptr, ptr %12, align 8
  call void @stnode_replace(ptr noundef %30, i32 noundef 9, ptr noundef %31)
  store i1 false, ptr %6, align 1
  store i32 1, ptr %16, align 4
  br label %94

32:                                               ; preds = %5
  br label %33

33:                                               ; preds = %32
  %34 = load ptr, ptr %14, align 8
  %35 = icmp ne ptr %34, null
  br i1 %35, label %36, label %46

36:                                               ; preds = %33
  %37 = load ptr, ptr %7, align 8
  %38 = getelementptr inbounds nuw %struct.dfwork_t, ptr %37, i32 0, i32 0
  %39 = load ptr, ptr %38, align 8
  %40 = icmp eq ptr %39, null
  br i1 %40, label %41, label %46

41:                                               ; preds = %36
  %42 = load ptr, ptr %14, align 8
  %43 = call ptr @df_error_new(i32 noundef -1, ptr noundef %42, ptr noundef null)
  %44 = load ptr, ptr %7, align 8
  %45 = getelementptr inbounds nuw %struct.dfwork_t, ptr %44, i32 0, i32 0
  store ptr %43, ptr %45, align 8
  br label %48

46:                                               ; preds = %36, %33
  %47 = load ptr, ptr %14, align 8
  call void @g_free(ptr noundef %47)
  br label %48

48:                                               ; preds = %46, %41
  br label %49

49:                                               ; preds = %48
  br label %50

50:                                               ; preds = %49
  %51 = load ptr, ptr %11, align 8
  %52 = icmp ne ptr %51, null
  br i1 %52, label %53, label %76

53:                                               ; preds = %50
  %54 = load ptr, ptr %7, align 8
  %55 = load ptr, ptr %11, align 8
  %56 = load ptr, ptr %13, align 8
  %57 = load ptr, ptr %9, align 8
  %58 = call i32 @mk_fvalue_from_val_string(ptr noundef %54, ptr noundef %55, ptr noundef %56, ptr noundef %57)
  store i32 %58, ptr %15, align 4
  %59 = load i32, ptr %15, align 4
  %60 = icmp ugt i32 %59, 2
  br i1 %60, label %61, label %75

61:                                               ; preds = %53
  %62 = load ptr, ptr %7, align 8
  %63 = getelementptr inbounds nuw %struct.dfwork_t, ptr %62, i32 0, i32 0
  call void @df_error_free(ptr noundef %63)
  %64 = load ptr, ptr %7, align 8
  %65 = load ptr, ptr %9, align 8
  %66 = call ptr @stnode_token(ptr noundef %65)
  %67 = load ptr, ptr %11, align 8
  %68 = getelementptr inbounds nuw %struct._header_field_info, ptr %67, i32 0, i32 2
  %69 = load i32, ptr %68, align 8
  %70 = call ptr @ftype_pretty_name(i32 noundef %69)
  %71 = load ptr, ptr %9, align 8
  %72 = call ptr @stnode_token(ptr noundef %71)
  call void (ptr, ptr, ...) @add_compile_warning(ptr noundef %64, ptr noundef @.str.5, ptr noundef %66, ptr noundef %70, ptr noundef %72)
  %73 = load i32, ptr %15, align 4
  %74 = icmp eq i32 %73, 5
  store i1 %74, ptr %6, align 1
  store i32 1, ptr %16, align 4
  br label %94

75:                                               ; preds = %53
  br label %76

76:                                               ; preds = %75, %50
  %77 = load ptr, ptr %7, align 8
  %78 = load ptr, ptr %9, align 8
  %79 = call { i64, i64 } @stnode_location(ptr noundef %78)
  %80 = getelementptr inbounds nuw { i64, i64 }, ptr %17, i32 0, i32 0
  %81 = extractvalue { i64, i64 } %79, 0
  store i64 %81, ptr %80, align 8
  %82 = getelementptr inbounds nuw { i64, i64 }, ptr %17, i32 0, i32 1
  %83 = extractvalue { i64, i64 } %79, 1
  store i64 %83, ptr %82, align 8
  %84 = getelementptr inbounds nuw { i64, i64 }, ptr %17, i32 0, i32 0
  %85 = load i64, ptr %84, align 8
  %86 = getelementptr inbounds nuw { i64, i64 }, ptr %17, i32 0, i32 1
  %87 = load i64, ptr %86, align 8
  call void @dfw_set_error_location(ptr noundef %77, i64 %85, i64 %87)
  br label %88

88:                                               ; preds = %76
  br label %89

89:                                               ; preds = %88
  br label %90

90:                                               ; preds = %89
  br label %91

91:                                               ; preds = %90
  call void @except_throw(i64 noundef 1, i64 noundef 5, ptr noundef null) #7
  unreachable

92:                                               ; No predecessors!
  br label %93

93:                                               ; preds = %92
  call void (ptr, i32, ptr, i64, ptr, ptr, ...) @ws_log_fatal_full(ptr noundef @.str, i32 noundef 7, ptr noundef @.str.1, i64 noundef 250, ptr noundef @__func__.dfilter_fvalue_from_literal, ptr noundef @.str.3) #7
  unreachable

94:                                               ; preds = %61, %28
  call void @llvm.lifetime.end.p0(i64 4, ptr %15) #8
  call void @llvm.lifetime.end.p0(i64 8, ptr %14) #8
  call void @llvm.lifetime.end.p0(i64 8, ptr %13) #8
  call void @llvm.lifetime.end.p0(i64 8, ptr %12) #8
  %95 = load i1, ptr %6, align 1
  ret i1 %95
}