; Function Attrs: null_pointer_is_valid sspstrong uwtable
define hidden zeroext i1 @dfilter_fvalue_from_literal(ptr noundef %0, i32 noundef %1, ptr noundef %2, i1 noundef zeroext %3, ptr noundef readonly captures(address_is_null) %4) local_unnamed_addr #0 {
  %6 = alloca ptr, align 8
  %7 = tail call ptr @stnode_data(ptr noundef %2)
  call void @llvm.lifetime.start.p0(i64 8, ptr nonnull %6) #8
  store ptr null, ptr %6, align 8
  %8 = call ptr @fvalue_from_literal(i32 noundef %1, ptr noundef %7, i1 noundef zeroext %3, ptr noundef nonnull %6)
  %.not = icmp eq ptr %8, null
  %9 = load ptr, ptr %6, align 8
  br i1 %.not, label %11, label %10

10:                                               ; preds = %5
  call void @g_free(ptr noundef %9)
  call void @stnode_replace(ptr noundef %2, i32 noundef 9, ptr noundef nonnull %8)
  br label %33

11:                                               ; preds = %5
  %.not27 = icmp eq ptr %9, null
  br i1 %.not27, label %17, label %12

12:                                               ; preds = %11
  %13 = load ptr, ptr %0, align 8
  %14 = icmp eq ptr %13, null
  br i1 %14, label %15, label %17

15:                                               ; preds = %12
  %16 = call ptr @df_error_new(i32 noundef -1, ptr noundef nonnull %9, ptr noundef null)
  store ptr %16, ptr %0, align 8
  br label %18

17:                                               ; preds = %12, %11
  call void @g_free(ptr noundef %9)
  br label %18

18:                                               ; preds = %17, %15
  %.not28 = icmp eq ptr %4, null
  br i1 %.not28, label %29, label %19

19:                                               ; preds = %18
  %20 = call fastcc i32 @mk_fvalue_from_val_string(ptr noundef %0, ptr noundef %4, ptr noundef %7, ptr noundef %2)
  %21 = icmp samesign ugt i32 %20, 2
  br i1 %21, label %22, label %29

22:                                               ; preds = %19
  call void @df_error_free(ptr noundef %0)
  %23 = call ptr @stnode_token(ptr noundef %2)
  %24 = getelementptr inbounds nuw i8, ptr %4, i64 16
  %25 = load i32, ptr %24, align 8
  %26 = call ptr @ftype_pretty_name(i32 noundef %25)
  %27 = call ptr @stnode_token(ptr noundef %2)
  call void (ptr, ptr, ...) @add_compile_warning(ptr noundef %0, ptr noundef nonnull @.str.5, ptr noundef %23, ptr noundef %26, ptr noundef %27)
  %28 = icmp eq i32 %20, 5
  br label %33

29:                                               ; preds = %19, %18
  %30 = call { i64, i64 } @stnode_location(ptr noundef %2)
  %31 = extractvalue { i64, i64 } %30, 0
  %32 = extractvalue { i64, i64 } %30, 1
  call void @dfw_set_error_location(ptr noundef %0, i64 %31, i64 %32)
  call void @except_throw(i64 noundef 1, i64 noundef 5, ptr noundef null) #7
  unreachable

33:                                               ; preds = %22, %10
  %.0 = phi i1 [ false, %10 ], [ %28, %22 ]
  call void @llvm.lifetime.end.p0(i64 8, ptr nonnull %6) #8
  ret i1 %.0
}